target datalayout = "e-m:e-p270:32:32-p271:32:32-p272:64:64-i64:64-i128:128-f80:128-n8:16:32:64-S128"
target triple = "x86_64-unknown-linux-gnu"

%"class.grpc_core::ConnectedSubchannel" = type { %"class.grpc_core::RefCounted", ptr, %"class.grpc_core::ChannelArgs", %"class.grpc_core::RefCountedPtr" }
%"class.grpc_core::RefCounted" = type { %"class.grpc_core::PolymorphicRefCount", %"class.grpc_core::RefCount" }
%"class.grpc_core::PolymorphicRefCount" = type { ptr }
%"class.grpc_core::RefCount" = type { %"struct.std::atomic.0" }
%"struct.std::atomic.0" = type { %"struct.std::__atomic_base.1" }
%"struct.std::__atomic_base.1" = type { i64 }
%"class.grpc_core::ChannelArgs" = type { %"class.grpc_core::AVL" }
%"class.grpc_core::AVL" = type { %"class.grpc_core::RefCountedPtr.2" }
%"class.grpc_core::RefCountedPtr.2" = type { ptr }
%"class.grpc_core::RefCountedPtr" = type { ptr }
%struct.grpc_channel_stack = type { %struct.grpc_stream_refcount, i64, i64, %"class.grpc_core::ManualConstructor.4", %"class.grpc_core::ManualConstructor.5" }
%struct.grpc_stream_refcount = type { %"class.grpc_core::RefCount", %struct.grpc_closure }
%struct.grpc_closure = type { %union.anon, ptr, ptr, %union.anon.3 }
%union.anon = type { ptr }
%union.anon.3 = type { i64 }
%"class.grpc_core::ManualConstructor.4" = type { [32 x i8] }
%"class.grpc_core::ManualConstructor.5" = type { [16 x i8] }
%"class.grpc_core::RefCountedPtr.17" = type { ptr }
%"class.grpc_core::RefCountedPtr.22" = type { ptr }
%"struct.grpc_core::SubchannelCall::Args" = type { %"class.grpc_core::RefCountedPtr.17", ptr, %"class.grpc_core::Slice", double, %"class.grpc_core::Timestamp", ptr, ptr, ptr }
%"class.grpc_core::Slice" = type { %"class.grpc_core::slice_detail::BaseSlice" }
%"class.grpc_core::slice_detail::BaseSlice" = type { %struct.grpc_slice }
%struct.grpc_slice = type { ptr, %"union.grpc_slice::grpc_slice_data" }
%"union.grpc_slice::grpc_slice_data" = type { %"struct.grpc_slice::grpc_slice_data::grpc_slice_refcounted", [8 x i8] }
%"struct.grpc_slice::grpc_slice_data::grpc_slice_refcounted" = type { i64, ptr }
%"class.grpc_core::Timestamp" = type { i64 }
%"class.grpc_core::Arena" = type { %"struct.std::atomic.23", %"struct.std::atomic.23", i64, %"struct.std::atomic.25", %"struct.std::atomic.27", ptr }
%"struct.std::atomic.23" = type { %"struct.std::__atomic_base.24" }
%"struct.std::__atomic_base.24" = type { i64 }
%"struct.std::atomic.25" = type { %"struct.std::__atomic_base.26" }
%"struct.std::__atomic_base.26" = type { ptr }
%"struct.std::atomic.27" = type { %"struct.std::__atomic_base.28" }
%"struct.std::__atomic_base.28" = type { ptr }

@_ZN9grpc_core14SubchannelCallC1ENS0_4ArgsEPN4absl12lts_202308026StatusE = unnamed_addr alias void (ptr, ptr, ptr), ptr @_ZN9grpc_core14SubchannelCallC2ENS0_4ArgsEPN4absl12lts_202308026StatusE

; Function Attrs: mustprogress nounwind uwtable
define internal void @_ZN9grpc_core12slice_detailL10EmptySliceEv(ptr noalias sret(%struct.grpc_slice) align 8 %agg.result) #5 {
entry:
  call void @llvm.memset.p0.i64(ptr align 8 %agg.result, i8 0, i64 32, i1 false)
  ret void
}

; Function Attrs: mustprogress nounwind uwtable
define linkonce_odr void @_ZN9grpc_core12slice_detail9BaseSliceC2ERK10grpc_slice(ptr noundef nonnull align 8 dereferenceable(32) %this, ptr noundef nonnull align 8 dereferenceable(32) %slice) unnamed_addr #5 comdat align 2 {
entry:
  %this.addr = alloca ptr, align 8
  %slice.addr = alloca ptr, align 8
  store ptr %this, ptr %this.addr, align 8
  store ptr %slice, ptr %slice.addr, align 8
  %this1 = load ptr, ptr %this.addr, align 8
  %slice_ = getelementptr inbounds %"class.grpc_core::slice_detail::BaseSlice", ptr %this1, i32 0, i32 0
  %0 = load ptr, ptr %slice.addr, align 8
  call void @llvm.memcpy.p0.p0.i64(ptr align 8 %slice_, ptr align 8 %0, i64 32, i1 false)
  ret void
}

; Function Attrs: mustprogress uwtable
define linkonce_odr void @_ZN9grpc_core12slice_detail9BaseSlice10TakeCSliceEv(ptr noalias sret(%struct.grpc_slice) align 8 %agg.result, ptr noundef nonnull align 8 dereferenceable(32) %this) #4 comdat align 2 {
entry:
  %this.addr = alloca ptr, align 8
  %ref.tmp = alloca %struct.grpc_slice, align 8
  store ptr %this, ptr %this.addr, align 8
  %this1 = load ptr, ptr %this.addr, align 8
  %slice_ = getelementptr inbounds %"class.grpc_core::slice_detail::BaseSlice", ptr %this1, i32 0, i32 0
  call void @llvm.memcpy.p0.p0.i64(ptr align 8 %agg.result, ptr align 8 %slice_, i64 32, i1 false)
  call void @_ZN9grpc_core12slice_detailL10EmptySliceEv(ptr sret(%struct.grpc_slice) align 8 %ref.tmp)
  %slice_2 = getelementptr inbounds %"class.grpc_core::slice_detail::BaseSlice", ptr %this1, i32 0, i32 0
  call void @llvm.memcpy.p0.p0.i64(ptr align 8 %slice_2, ptr align 8 %ref.tmp, i64 32, i1 false)
  ret void
}

; Function Attrs: mustprogress nounwind uwtable
define linkonce_odr void @_ZN9grpc_core5SliceC2EOS0_(ptr noundef nonnull align 8 dereferenceable(32) %this, ptr noundef nonnull align 8 dereferenceable(32) %other) unnamed_addr #5 comdat align 2 personality ptr @__gxx_personality_v0 {
entry:
  %this.addr = alloca ptr, align 8
  %other.addr = alloca ptr, align 8
  %ref.tmp = alloca %struct.grpc_slice, align 8
  store ptr %this, ptr %this.addr, align 8
  store ptr %other, ptr %other.addr, align 8
  %this1 = load ptr, ptr %this.addr, align 8
  %0 = load ptr, ptr %other.addr, align 8
  invoke void @_ZN9grpc_core12slice_detail9BaseSlice10TakeCSliceEv(ptr sret(%struct.grpc_slice) align 8 %ref.tmp, ptr noundef nonnull align 8 dereferenceable(32) %0)
          to label %invoke.cont unwind label %terminate.lpad

invoke.cont:                                      ; preds = %entry
  invoke void @_ZN9grpc_core12slice_detail9BaseSliceC2ERK10grpc_slice(ptr noundef nonnull align 8 dereferenceable(32) %this1, ptr noundef nonnull align 8 dereferenceable(32) %ref.tmp)
          to label %invoke.cont2 unwind label %terminate.lpad

invoke.cont2:                                     ; preds = %invoke.cont
  ret void

terminate.lpad:                                   ; preds = %invoke.cont, %entry
  %1 = landingpad { ptr, i32 }
          catch ptr null
  %2 = extractvalue { ptr, i32 } %1, 0
  call void @__clang_call_terminate(ptr %2) #18
  unreachable
}

; Function Attrs: mustprogress nounwind uwtable
define linkonce_odr void @_ZN9grpc_core13RefCountedPtrINS_19ConnectedSubchannelEEC2EOS2_(ptr noundef nonnull align 8 dereferenceable(8) %this, ptr noundef nonnull align 8 dereferenceable(8) %other) unnamed_addr #5 comdat align 2 {
entry:
  %this.addr = alloca ptr, align 8
  %other.addr = alloca ptr, align 8
  store ptr %this, ptr %this.addr, align 8
  store ptr %other, ptr %other.addr, align 8
  %this1 = load ptr, ptr %this.addr, align 8
  %value_ = getelementptr inbounds %"class.grpc_core::RefCountedPtr.17", ptr %this1, i32 0, i32 0
  store ptr null, ptr %value_, align 8
  %0 = load ptr, ptr %other.addr, align 8
  %value_2 = getelementptr inbounds %"class.grpc_core::RefCountedPtr.17", ptr %0, i32 0, i32 0
  %1 = load ptr, ptr %value_2, align 8
  %value_3 = getelementptr inbounds %"class.grpc_core::RefCountedPtr.17", ptr %this1, i32 0, i32 0
  store ptr %1, ptr %value_3, align 8
  %2 = load ptr, ptr %other.addr, align 8
  %value_4 = getelementptr inbounds %"class.grpc_core::RefCountedPtr.17", ptr %2, i32 0, i32 0
  store ptr null, ptr %value_4, align 8
  ret void
}

; Function Attrs: mustprogress nounwind uwtable
define linkonce_odr void @_ZN9grpc_core13RefCountedPtrINS_14SubchannelCallEEC2IS1_EEPT_(ptr noundef nonnull align 8 dereferenceable(8) %this, ptr noundef %value) unnamed_addr #5 comdat align 2 {
entry:
  %this.addr = alloca ptr, align 8
  %value.addr = alloca ptr, align 8
  store ptr %this, ptr %this.addr, align 8
  store ptr %value, ptr %value.addr, align 8
  %this1 = load ptr, ptr %this.addr, align 8
  %value_ = getelementptr inbounds %"class.grpc_core::RefCountedPtr.22", ptr %this1, i32 0, i32 0
  %0 = load ptr, ptr %value.addr, align 8
  store ptr %0, ptr %value_, align 8
  ret void
}

; Function Attrs: mustprogress nounwind uwtable
define linkonce_odr void @_ZN9grpc_core14SubchannelCall4ArgsC2EOS1_(ptr noundef nonnull align 8 dereferenceable(88) %this, ptr noundef nonnull align 8 dereferenceable(88) %0) unnamed_addr #5 comdat align 2 {
entry:
  %this.addr = alloca ptr, align 8
  %.addr = alloca ptr, align 8
  store ptr %this, ptr %this.addr, align 8
  store ptr %0, ptr %.addr, align 8
  %this1 = load ptr, ptr %this.addr, align 8
  %connected_subchannel = getelementptr inbounds %"struct.grpc_core::SubchannelCall::Args", ptr %this1, i32 0, i32 0
  %1 = load ptr, ptr %.addr, align 8
  %connected_subchannel2 = getelementptr inbounds %"struct.grpc_core::SubchannelCall::Args", ptr %1, i32 0, i32 0
  call void @_ZN9grpc_core13RefCountedPtrINS_19ConnectedSubchannelEEC2EOS2_(ptr noundef nonnull align 8 dereferenceable(8) %connected_subchannel, ptr noundef nonnull align 8 dereferenceable(8) %connected_subchannel2) #3
  %pollent = getelementptr inbounds %"struct.grpc_core::SubchannelCall::Args", ptr %this1, i32 0, i32 1
  %2 = load ptr, ptr %.addr, align 8
  %pollent3 = getelementptr inbounds %"struct.grpc_core::SubchannelCall::Args", ptr %2, i32 0, i32 1
  %3 = load ptr, ptr %pollent3, align 8
  store ptr %3, ptr %pollent, align 8
  %path = getelementptr inbounds %"struct.grpc_core::SubchannelCall::Args", ptr %this1, i32 0, i32 2
  %4 = load ptr, ptr %.addr, align 8
  %path4 = getelementptr inbounds %"struct.grpc_core::SubchannelCall::Args", ptr %4, i32 0, i32 2
  call void @_ZN9grpc_core5SliceC2EOS0_(ptr noundef nonnull align 8 dereferenceable(32) %path, ptr noundef nonnull align 8 dereferenceable(32) %path4) #3
  %start_time = getelementptr inbounds %"struct.grpc_core::SubchannelCall::Args", ptr %this1, i32 0, i32 3
  %5 = load ptr, ptr %.addr, align 8
  %start_time5 = getelementptr inbounds %"struct.grpc_core::SubchannelCall::Args", ptr %5, i32 0, i32 3
  call void @llvm.memcpy.p0.p0.i64(ptr align 8 %start_time, ptr align 8 %start_time5, i64 40, i1 false)
  ret void
}

; Function Attrs: mustprogress uwtable
define linkonce_odr noundef ptr @_ZN9grpc_core5Arena5AllocEm(ptr noundef nonnull align 8 dereferenceable(48) %this, i64 noundef %size) #4 comdat align 2 {
entry:
  %this.addr.i = alloca ptr, align 8
  %__i.addr.i = alloca i64, align 8
  %__m.addr.i = alloca i32, align 4
  %.atomictmp.i = alloca i64, align 8
  %atomic-temp.i = alloca i64, align 8
  %retval = alloca ptr, align 8
  %this.addr = alloca ptr, align 8
  %size.addr = alloca i64, align 8
  %begin = alloca i64, align 8
  store ptr %this, ptr %this.addr, align 8
  store i64 %size, ptr %size.addr, align 8
  %this1 = load ptr, ptr %this.addr, align 8
  %0 = load i64, ptr %size.addr, align 8
  %add = add i64 %0, 16
  %sub = sub i64 %add, 1
  %and = and i64 %sub, 4294967280
  store i64 %and, ptr %size.addr, align 8
  %total_used_ = getelementptr inbounds %"class.grpc_core::Arena", ptr %this1, i32 0, i32 0
  %1 = load i64, ptr %size.addr, align 8
  store ptr %total_used_, ptr %this.addr.i, align 8
  store i64 %1, ptr %__i.addr.i, align 8
  store i32 0, ptr %__m.addr.i, align 4
  %this1.i = load ptr, ptr %this.addr.i, align 8
  %2 = load i32, ptr %__m.addr.i, align 4
  %3 = load i64, ptr %__i.addr.i, align 8
  store i64 %3, ptr %.atomictmp.i, align 8
  switch i32 %2, label %monotonic.i [
    i32 1, label %acquire.i
    i32 2, label %acquire.i
    i32 3, label %release.i
    i32 4, label %acqrel.i
    i32 5, label %seqcst.i
  ]

monotonic.i:                                      ; preds = %entry
  %4 = load i64, ptr %.atomictmp.i, align 8
  %5 = atomicrmw add ptr %this1.i, i64 %4 monotonic, align 8
  store i64 %5, ptr %atomic-temp.i, align 8
  br label %_ZNSt13__atomic_baseImE9fetch_addEmSt12memory_order.exit

acquire.i:                                        ; preds = %entry, %entry
  %6 = load i64, ptr %.atomictmp.i, align 8
  %7 = atomicrmw add ptr %this1.i, i64 %6 acquire, align 8
  store i64 %7, ptr %atomic-temp.i, align 8
  br label %_ZNSt13__atomic_baseImE9fetch_addEmSt12memory_order.exit

release.i:                                        ; preds = %entry
  %8 = load i64, ptr %.atomictmp.i, align 8
  %9 = atomicrmw add ptr %this1.i, i64 %8 release, align 8
  store i64 %9, ptr %atomic-temp.i, align 8
  br label %_ZNSt13__atomic_baseImE9fetch_addEmSt12memory_order.exit

acqrel.i:                                         ; preds = %entry
  %10 = load i64, ptr %.atomictmp.i, align 8
  %11 = atomicrmw add ptr %this1.i, i64 %10 acq_rel, align 8
  store i64 %11, ptr %atomic-temp.i, align 8
  br label %_ZNSt13__atomic_baseImE9fetch_addEmSt12memory_order.exit

seqcst.i:                                         ; preds = %entry
  %12 = load i64, ptr %.atomictmp.i, align 8
  %13 = atomicrmw add ptr %this1.i, i64 %12 seq_cst, align 8
  store i64 %13, ptr %atomic-temp.i, align 8
  br label %_ZNSt13__atomic_baseImE9fetch_addEmSt12memory_order.exit

_ZNSt13__atomic_baseImE9fetch_addEmSt12memory_order.exit: ; preds = %seqcst.i, %acqrel.i, %release.i, %acquire.i, %monotonic.i
  %14 = load i64, ptr %atomic-temp.i, align 8
  store i64 %14, ptr %begin, align 8
  %15 = load i64, ptr %begin, align 8
  %16 = load i64, ptr %size.addr, align 8
  %add2 = add i64 %15, %16
  %initial_zone_size_ = getelementptr inbounds %"class.grpc_core::Arena", ptr %this1, i32 0, i32 2
  %17 = load i64, ptr %initial_zone_size_, align 8
  %cmp = icmp ule i64 %add2, %17
  br i1 %cmp, label %if.then, label %if.else

if.then:                                          ; preds = %_ZNSt13__atomic_baseImE9fetch_addEmSt12memory_order.exit
  %add.ptr = getelementptr inbounds i8, ptr %this1, i64 48
  %18 = load i64, ptr %begin, align 8
  %add.ptr3 = getelementptr inbounds i8, ptr %add.ptr, i64 %18
  store ptr %add.ptr3, ptr %retval, align 8
  br label %return

if.else:                                          ; preds = %_ZNSt13__atomic_baseImE9fetch_addEmSt12memory_order.exit
  %19 = load i64, ptr %size.addr, align 8
  %call4 = call noundef ptr @_ZN9grpc_core5Arena9AllocZoneEm(ptr noundef nonnull align 8 dereferenceable(48) %this1, i64 noundef %19)
  store ptr %call4, ptr %retval, align 8
  br label %return

return:                                           ; preds = %if.else, %if.then
  %20 = load ptr, ptr %retval, align 8
  ret ptr %20
}

; Function Attrs: mustprogress nounwind uwtable
define noundef i64 @_ZNK9grpc_core19ConnectedSubchannel26GetInitialCallSizeEstimateEv(ptr noundef nonnull align 8 dereferenceable(40) %this) #5 align 2 {
entry:
  %this.addr = alloca ptr, align 8
  store ptr %this, ptr %this.addr, align 8
  %this1 = load ptr, ptr %this.addr, align 8
  %channel_stack_ = getelementptr inbounds %"class.grpc_core::ConnectedSubchannel", ptr %this1, i32 0, i32 1
  %0 = load ptr, ptr %channel_stack_, align 8
  %call_stack_size = getelementptr inbounds %struct.grpc_channel_stack, ptr %0, i32 0, i32 2
  %1 = load i64, ptr %call_stack_size, align 8
  %add = add i64 80, %1
  ret i64 %add
}

; Function Attrs: mustprogress nounwind uwtable
define linkonce_odr noundef ptr @_ZNK9grpc_core13RefCountedPtrINS_19ConnectedSubchannelEEptEv(ptr noundef nonnull align 8 dereferenceable(8) %this) #5 comdat align 2 {
entry:
  %this.addr = alloca ptr, align 8
  store ptr %this, ptr %this.addr, align 8
  %this1 = load ptr, ptr %this.addr, align 8
  %value_ = getelementptr inbounds %"class.grpc_core::RefCountedPtr.17", ptr %this1, i32 0, i32 0
  %0 = load ptr, ptr %value_, align 8
  ret ptr %0
}

; Function Attrs: mustprogress uwtable
define void @_ZN9grpc_core14SubchannelCall6CreateENS0_4ArgsEPN4absl12lts_202308026StatusE(ptr noalias sret(%"class.grpc_core::RefCountedPtr.22") align 8 %agg.result, ptr noundef %args, ptr noundef %error) #4 align 2 personality ptr @__gxx_personality_v0 {
entry:
  %result.ptr = alloca ptr, align 8
  %args.indirect_addr = alloca ptr, align 8
  %error.addr = alloca ptr, align 8
  %allocation_size = alloca i64, align 8
  %arena = alloca ptr, align 8
  %agg.tmp = alloca %"struct.grpc_core::SubchannelCall::Args", align 8
  %exn.slot = alloca ptr, align 8
  %ehselector.slot = alloca i32, align 4
  store ptr %agg.result, ptr %result.ptr, align 8
  store ptr %args, ptr %args.indirect_addr, align 8
  store ptr %error, ptr %error.addr, align 8
  %connected_subchannel = getelementptr inbounds %"struct.grpc_core::SubchannelCall::Args", ptr %args, i32 0, i32 0
  %call = call noundef ptr @_ZNK9grpc_core13RefCountedPtrINS_19ConnectedSubchannelEEptEv(ptr noundef nonnull align 8 dereferenceable(8) %connected_subchannel)
  %call1 = call noundef i64 @_ZNK9grpc_core19ConnectedSubchannel26GetInitialCallSizeEstimateEv(ptr noundef nonnull align 8 dereferenceable(40) %call)
  store i64 %call1, ptr %allocation_size, align 8
  %arena2 = getelementptr inbounds %"struct.grpc_core::SubchannelCall::Args", ptr %args, i32 0, i32 5
  %0 = load ptr, ptr %arena2, align 8
  store ptr %0, ptr %arena, align 8
  %1 = load ptr, ptr %arena, align 8
  %2 = load i64, ptr %allocation_size, align 8
  %call3 = call noundef ptr @_ZN9grpc_core5Arena5AllocEm(ptr noundef nonnull align 8 dereferenceable(48) %1, i64 noundef %2)
  call void @_ZN9grpc_core14SubchannelCall4ArgsC2EOS1_(ptr noundef nonnull align 8 dereferenceable(88) %agg.tmp, ptr noundef nonnull align 8 dereferenceable(88) %args) #3
  %3 = load ptr, ptr %error.addr, align 8
  invoke void @_ZN9grpc_core14SubchannelCallC1ENS0_4ArgsEPN4absl12lts_202308026StatusE(ptr noundef nonnull align 8 dereferenceable(72) %call3, ptr noundef %agg.tmp, ptr noundef %3)
          to label %invoke.cont unwind label %lpad

invoke.cont:                                      ; preds = %entry
  invoke void @_ZN9grpc_core13RefCountedPtrINS_14SubchannelCallEEC2IS1_EEPT_(ptr noundef nonnull align 8 dereferenceable(8) %agg.result, ptr noundef %call3)
          to label %invoke.cont4 unwind label %lpad

invoke.cont4:                                     ; preds = %invoke.cont
  call void @_ZN9grpc_core14SubchannelCall4ArgsD2Ev(ptr noundef nonnull align 8 dereferenceable(88) %agg.tmp) #3
  ret void

lpad:                                             ; preds = %invoke.cont, %entry
  %4 = landingpad { ptr, i32 }
          cleanup
  %5 = extractvalue { ptr, i32 } %4, 0
  store ptr %5, ptr %exn.slot, align 8
  %6 = extractvalue { ptr, i32 } %4, 1
  store i32 %6, ptr %ehselector.slot, align 4
  call void @_ZN9grpc_core14SubchannelCall4ArgsD2Ev(ptr noundef nonnull align 8 dereferenceable(88) %agg.tmp) #3
  br label %eh.resume

eh.resume:                                        ; preds = %lpad
  %exn = load ptr, ptr %exn.slot, align 8
  %sel = load i32, ptr %ehselector.slot, align 4
  %lpad.val = insertvalue { ptr, i32 } poison, ptr %exn, 0
  %lpad.val5 = insertvalue { ptr, i32 } %lpad.val, i32 %sel, 1
  resume { ptr, i32 } %lpad.val5
}