; Function Attrs: mustprogress uwtable
define void @_ZN9grpc_core14SubchannelCall6CreateENS0_4ArgsEPN4absl12lts_202308026StatusE(ptr noalias nocapture writeonly sret(%"class.grpc_core::RefCountedPtr.22") align 8 %agg.result, ptr nocapture noundef %args, ptr noundef %error) local_unnamed_addr #3 align 2 personality ptr @__gxx_personality_v0 {
entry:
  %agg.tmp = alloca %"struct.grpc_core::SubchannelCall::Args", align 16
  %0 = load ptr, ptr %args, align 8
  %channel_stack_.i = getelementptr inbounds i8, ptr %0, i64 16
  %1 = load ptr, ptr %channel_stack_.i, align 8
  %call_stack_size.i = getelementptr inbounds i8, ptr %1, i64 48
  %2 = load i64, ptr %call_stack_size.i, align 8
  %arena2 = getelementptr inbounds i8, ptr %args, i64 64
  %3 = load ptr, ptr %arena2, align 8
  %sub.i = add i64 %2, 95
  %and.i = and i64 %sub.i, 4294967280
  %4 = atomicrmw add ptr %3, i64 %and.i monotonic, align 8
  %add2.i = add i64 %4, %and.i
  %initial_zone_size_.i = getelementptr inbounds i8, ptr %3, i64 16
  %5 = load i64, ptr %initial_zone_size_.i, align 8
  %cmp.not.i = icmp ugt i64 %add2.i, %5
  br i1 %cmp.not.i, label %if.else.i, label %if.then.i

if.then.i:                                        ; preds = %entry
  %add.ptr.i = getelementptr inbounds i8, ptr %3, i64 48
  %add.ptr3.i = getelementptr inbounds i8, ptr %add.ptr.i, i64 %4
  br label %_ZN9grpc_core5Arena5AllocEm.exit

if.else.i:                                        ; preds = %entry
  %call4.i = tail call noundef ptr @_ZN9grpc_core5Arena9AllocZoneEm(ptr noundef nonnull align 8 dereferenceable(48) %3, i64 noundef %and.i)
  br label %_ZN9grpc_core5Arena5AllocEm.exit

_ZN9grpc_core5Arena5AllocEm.exit:                 ; preds = %if.then.i, %if.else.i
  %retval.0.i = phi ptr [ %add.ptr3.i, %if.then.i ], [ %call4.i, %if.else.i ]
  %6 = load <2 x ptr>, ptr %args, align 8
  store ptr null, ptr %args, align 8
  store <2 x ptr> %6, ptr %agg.tmp, align 16
  %path.i = getelementptr inbounds i8, ptr %agg.tmp, i64 16
  %path4.i = getelementptr inbounds i8, ptr %args, i64 16
  call void @llvm.memcpy.p0.p0.i64(ptr noundef nonnull align 16 dereferenceable(32) %path.i, ptr noundef nonnull align 8 dereferenceable(32) %path4.i, i64 32, i1 false)
  tail call void @llvm.memset.p0.i64(ptr noundef nonnull align 8 dereferenceable(32) %path4.i, i8 0, i64 32, i1 false), !noalias !16
  %start_time.i = getelementptr inbounds i8, ptr %agg.tmp, i64 48
  %start_time5.i = getelementptr inbounds i8, ptr %args, i64 48
  call void @llvm.memcpy.p0.p0.i64(ptr noundef nonnull align 16 dereferenceable(40) %start_time.i, ptr noundef nonnull align 8 dereferenceable(40) %start_time5.i, i64 40, i1 false)
  invoke void @_ZN9grpc_core14SubchannelCallC1ENS0_4ArgsEPN4absl12lts_202308026StatusE(ptr noundef nonnull align 8 dereferenceable(72) %retval.0.i, ptr noundef nonnull %agg.tmp, ptr noundef %error)
          to label %invoke.cont unwind label %lpad

invoke.cont:                                      ; preds = %_ZN9grpc_core5Arena5AllocEm.exit
  store ptr %retval.0.i, ptr %agg.result, align 8
  %7 = load ptr, ptr %path.i, align 16
  %cmp.i.i.i = icmp ugt ptr %7, inttoptr (i64 1 to ptr)
  br i1 %cmp.i.i.i, label %if.then.i.i.i, label %_ZN9grpc_core5SliceD2Ev.exit.i

if.then.i.i.i:                                    ; preds = %invoke.cont
  %8 = atomicrmw sub ptr %7, i64 1 acq_rel, align 8
  %cmp.i.i.i.i = icmp eq i64 %8, 1
  br i1 %cmp.i.i.i.i, label %if.then.i.i.i.i, label %_ZN9grpc_core5SliceD2Ev.exit.i

if.then.i.i.i.i:                                  ; preds = %if.then.i.i.i
  %destroyer_fn_.i.i.i.i = getelementptr inbounds i8, ptr %7, i64 8
  %9 = load ptr, ptr %destroyer_fn_.i.i.i.i, align 8
  invoke void %9(ptr noundef nonnull %7)
          to label %_ZN9grpc_core5SliceD2Ev.exit.i unwind label %terminate.lpad.i.i

terminate.lpad.i.i:                               ; preds = %if.then.i.i.i.i
  %10 = landingpad { ptr, i32 }
          catch ptr null
  %11 = extractvalue { ptr, i32 } %10, 0
  call void @__clang_call_terminate(ptr %11) #27
  unreachable

_ZN9grpc_core5SliceD2Ev.exit.i:                   ; preds = %if.then.i.i.i.i, %if.then.i.i.i, %invoke.cont
  %12 = load ptr, ptr %agg.tmp, align 16
  %cmp.not.i.i = icmp eq ptr %12, null
  br i1 %cmp.not.i.i, label %_ZN9grpc_core14SubchannelCall4ArgsD2Ev.exit, label %if.then.i.i

if.then.i.i:                                      ; preds = %_ZN9grpc_core5SliceD2Ev.exit.i
  %refs_.i.i.i = getelementptr inbounds i8, ptr %12, i64 8
  %13 = atomicrmw sub ptr %refs_.i.i.i, i64 1 acq_rel, align 8
  %cmp.i.i.i1.i = icmp eq i64 %13, 1
  br i1 %cmp.i.i.i1.i, label %if.then.i.i2.i, label %_ZN9grpc_core14SubchannelCall4ArgsD2Ev.exit

if.then.i.i2.i:                                   ; preds = %if.then.i.i
  %vtable.i.i.i.i = load ptr, ptr %12, align 8
  %vfn.i.i.i.i = getelementptr inbounds i8, ptr %vtable.i.i.i.i, i64 8
  %14 = load ptr, ptr %vfn.i.i.i.i, align 8
  call void %14(ptr noundef nonnull align 8 dereferenceable(40) %12) #26
  br label %_ZN9grpc_core14SubchannelCall4ArgsD2Ev.exit

_ZN9grpc_core14SubchannelCall4ArgsD2Ev.exit:      ; preds = %_ZN9grpc_core5SliceD2Ev.exit.i, %if.then.i.i, %if.then.i.i2.i
  ret void

lpad:                                             ; preds = %_ZN9grpc_core5Arena5AllocEm.exit
  %15 = landingpad { ptr, i32 }
          cleanup
  call void @_ZN9grpc_core14SubchannelCall4ArgsD2Ev(ptr noundef nonnull align 8 dereferenceable(88) %agg.tmp) #26
  resume { ptr, i32 } %15
}